target datalayout = "e-m:e-p270:32:32-p271:32:32-p272:64:64-i64:64-i128:128-f80:128-n8:16:32:64-S128"
target triple = "x86_64-pc-linux-gnu"

%struct.xcgroup_t = type { ptr, ptr, ptr, i32, i32, i32 }
%struct.foreach_pid_array_t = type { i32, ptr }

@task_list = internal global ptr null, align 8
@int_cg = internal global [9 x %struct.xcgroup_t] zeroinitializer, align 16

; Function Attrs: nounwind uwtable
define dso_local i32 @cgroup_p_step_get_pids(ptr noundef %0, ptr noundef %1) #0 {
  %3 = alloca ptr, align 8
  %4 = alloca ptr, align 8
  %5 = alloca %struct.foreach_pid_array_t, align 8
  store ptr %0, ptr %3, align 8
  store ptr %1, ptr %4, align 8
  call void @llvm.lifetime.start.p0(i64 16, ptr %5) #10
  call void @llvm.memset.p0.i64(ptr align 8 %5, i8 0, i64 16, i1 false)
  %6 = getelementptr inbounds nuw %struct.foreach_pid_array_t, ptr %5, i32 0, i32 1
  %7 = getelementptr inbounds nuw %struct.foreach_pid_array_t, ptr %5, i32 0, i32 0
  %8 = call i32 @common_cgroup_get_pids(ptr noundef getelementptr inbounds ([9 x %struct.xcgroup_t], ptr @int_cg, i64 0, i64 5), ptr noundef %6, ptr noundef %7)
  %9 = load ptr, ptr @task_list, align 8
  %10 = call i32 @list_for_each(ptr noundef %9, ptr noundef @_get_task_pids, ptr noundef %5)
  %11 = getelementptr inbounds nuw %struct.foreach_pid_array_t, ptr %5, i32 0, i32 0
  %12 = load i32, ptr %11, align 8
  %13 = load ptr, ptr %4, align 8
  store i32 %12, ptr %13, align 4
  %14 = getelementptr inbounds nuw %struct.foreach_pid_array_t, ptr %5, i32 0, i32 1
  %15 = load ptr, ptr %14, align 8
  %16 = load ptr, ptr %3, align 8
  store ptr %15, ptr %16, align 8
  call void @llvm.lifetime.end.p0(i64 16, ptr %5) #10
  ret i32 0
}