; Function Attrs: nounwind uwtable
define dso_local noundef i32 @cgroup_p_step_get_pids(ptr noundef writeonly captures(none) initializes((0, 8)) %0, ptr noundef writeonly captures(none) initializes((0, 4)) %1) local_unnamed_addr #0 {
  %3 = alloca %struct.foreach_pid_array_t, align 8
  call void @llvm.lifetime.start.p0(i64 16, ptr nonnull %3) #17
  call void @llvm.memset.p0.i64(ptr noundef nonnull align 8 dereferenceable(16) %3, i8 0, i64 16, i1 false)
  %4 = getelementptr inbounds nuw i8, ptr %3, i64 8
  %5 = call i32 @common_cgroup_get_pids(ptr noundef nonnull getelementptr inbounds nuw (i8, ptr @int_cg, i64 200), ptr noundef nonnull %4, ptr noundef nonnull %3) #17
  %6 = load ptr, ptr @task_list, align 8
  %7 = call i32 @list_for_each(ptr noundef %6, ptr noundef nonnull @_get_task_pids, ptr noundef nonnull %3) #17
  %8 = load i32, ptr %3, align 8
  store i32 %8, ptr %1, align 4
  %9 = load ptr, ptr %4, align 8
  store ptr %9, ptr %0, align 8
  call void @llvm.lifetime.end.p0(i64 16, ptr nonnull %3) #17
  ret i32 0
}